; Function Attrs: mustprogress nounwind uwtable
define void @_ZN6icu_7717DateFormatSymbolsD2Ev(ptr noundef nonnull align 8 dereferenceable(976) %0) unnamed_addr #0 align 2 personality ptr @__gxx_personality_v0 {
  invoke void @_ZN6icu_7717DateFormatSymbols7disposeEv(ptr noundef nonnull align 8 dereferenceable(976) %0)
          to label %2 unwind label %16

2:                                                ; preds = %1
  %3 = getelementptr inbounds nuw i8, ptr %0, i64 968
  %4 = load ptr, ptr %3, align 8, !tbaa !146
  %5 = icmp eq ptr %4, null
  br i1 %5, label %7, label %6

6:                                                ; preds = %2
  tail call void @_ZN6icu_7715MaybeStackArrayIcLi40EED1Ev(ptr noundef nonnull align 8 dereferenceable(60) %4) #19
  tail call void @_ZN6icu_777UMemorydlEPv(ptr noundef nonnull %4) #19
  br label %7

7:                                                ; preds = %6, %2
  %8 = getelementptr inbounds nuw i8, ptr %0, i64 960
  %9 = load ptr, ptr %8, align 8, !tbaa !145
  %10 = icmp eq ptr %9, null
  br i1 %10, label %12, label %11

11:                                               ; preds = %7
  tail call void @_ZN6icu_7715MaybeStackArrayIcLi40EED1Ev(ptr noundef nonnull align 8 dereferenceable(60) %9) #19
  tail call void @_ZN6icu_777UMemorydlEPv(ptr noundef nonnull %9) #19
  br label %12

12:                                               ; preds = %11, %7
  %13 = getelementptr inbounds nuw i8, ptr %0, i64 768
  tail call void @_ZN6icu_7713UnicodeStringD1Ev(ptr noundef nonnull align 8 dereferenceable(64) %13) #19
  %14 = getelementptr inbounds nuw i8, ptr %0, i64 544
  tail call void @_ZN6icu_776LocaleD1Ev(ptr noundef nonnull align 8 dereferenceable(217) %14) #19
  %15 = getelementptr inbounds nuw i8, ptr %0, i64 312
  tail call void @_ZN6icu_7713UnicodeStringD1Ev(ptr noundef nonnull align 8 dereferenceable(64) %15) #19
  tail call void @_ZN6icu_777UObjectD2Ev(ptr noundef nonnull align 8 dereferenceable(8) %0) #19
  ret void

16:                                               ; preds = %1
  %17 = landingpad { ptr, i32 }
          catch ptr null
  %18 = extractvalue { ptr, i32 } %17, 0
  tail call void @__clang_call_terminate(ptr %18) #21
  unreachable
}